target datalayout = "e-m:e-p270:32:32-p271:32:32-p272:64:64-i64:64-i128:128-f80:128-n8:16:32:64-S128"
target triple = "x86_64-pc-linux-gnu"

%"class.rocksdb::Status" = type { i8, i8, i8, i8, i8, i8, %"class.std::unique_ptr" }
%"class.std::unique_ptr" = type { %"struct.std::__uniq_ptr_data" }
%"struct.std::__uniq_ptr_data" = type { %"class.std::__uniq_ptr_impl" }
%"class.std::__uniq_ptr_impl" = type { %"class.std::tuple" }
%"class.std::tuple" = type { %"struct.std::_Tuple_impl" }
%"struct.std::_Tuple_impl" = type { %"struct.std::_Head_base.4" }
%"struct.std::_Head_base.4" = type { ptr }
%"class.rocksdb::PersistentStatsHistoryIterator" = type { %"class.rocksdb::StatsHistoryIterator", i64, i64, i64, %"class.std::map.166", %"class.rocksdb::Status", i8, ptr }
%"class.rocksdb::StatsHistoryIterator" = type { ptr }
%"class.std::map.166" = type { %"class.std::_Rb_tree.167" }
%"class.std::_Rb_tree.167" = type { %"struct.std::_Rb_tree<std::__cxx11::basic_string<char>, std::pair<const std::__cxx11::basic_string<char>, unsigned long>, std::_Select1st<std::pair<const std::__cxx11::basic_string<char>, unsigned long>>, std::less<std::__cxx11::basic_string<char>>>::_Rb_tree_impl" }
%"struct.std::_Rb_tree<std::__cxx11::basic_string<char>, std::pair<const std::__cxx11::basic_string<char>, unsigned long>, std::_Select1st<std::pair<const std::__cxx11::basic_string<char>, unsigned long>>, std::less<std::__cxx11::basic_string<char>>>::_Rb_tree_impl" = type { [8 x i8], %"struct.std::_Rb_tree_header" }
%"struct.std::_Rb_tree_header" = type { %"struct.std::_Rb_tree_node_base", i64 }
%"struct.std::_Rb_tree_node_base" = type { i32, ptr, ptr, ptr }

; Function Attrs: mustprogress nounwind uwtable
define noundef i64 @_ZNK7rocksdb30PersistentStatsHistoryIterator12GetStatsTimeEv(ptr noundef nonnull align 8 dereferenceable(112) %0) unnamed_addr #3 align 2 {
  %2 = alloca ptr, align 8
  store ptr %0, ptr %2, align 8, !tbaa !179
  %3 = load ptr, ptr %2, align 8
  %4 = getelementptr inbounds nuw %"class.rocksdb::PersistentStatsHistoryIterator", ptr %3, i32 0, i32 1
  %5 = load i64, ptr %4, align 8, !tbaa !223
  ret i64 %5
}

; Function Attrs: mustprogress uwtable
define void @_ZN7rocksdb30PersistentStatsHistoryIterator4NextEv(ptr noundef nonnull align 8 dereferenceable(112) %0) unnamed_addr #5 align 2 {
  %2 = alloca ptr, align 8
  store ptr %0, ptr %2, align 8, !tbaa !179
  %3 = load ptr, ptr %2, align 8
  %4 = call noundef i64 @_ZNK7rocksdb30PersistentStatsHistoryIterator12GetStatsTimeEv(ptr noundef nonnull align 8 dereferenceable(112) %3)
  %5 = add i64 %4, 1
  %6 = getelementptr inbounds nuw %"class.rocksdb::PersistentStatsHistoryIterator", ptr %3, i32 0, i32 3
  %7 = load i64, ptr %6, align 8, !tbaa !215
  call void @_ZN7rocksdb30PersistentStatsHistoryIterator21AdvanceIteratorByTimeEmm(ptr noundef nonnull align 8 dereferenceable(112) %3, i64 noundef %5, i64 noundef %7)
  ret void
}