; Function Attrs: mustprogress uwtable
define void @_ZN7rocksdb30PersistentStatsHistoryIterator4NextEv(ptr noundef nonnull align 8 dereferenceable(112) %0) unnamed_addr #4 align 2 {
  %2 = getelementptr inbounds nuw i8, ptr %0, i64 8
  %3 = load i64, ptr %2, align 8, !tbaa !173
  %4 = add i64 %3, 1
  %5 = getelementptr inbounds nuw i8, ptr %0, i64 24
  %6 = load i64, ptr %5, align 8, !tbaa !174
  tail call void @_ZN7rocksdb30PersistentStatsHistoryIterator21AdvanceIteratorByTimeEmm(ptr noundef nonnull align 8 dereferenceable(112) %0, i64 noundef %4, i64 noundef %6)
  ret void
}